; Function Attrs: nounwind uwtable
define ptr @wolfTLSv1_2_client_method_ex(ptr noundef readnone captures(none) %0) local_unnamed_addr #0 {
  %2 = tail call ptr @wolfSSL_Malloc(i64 noundef 4) #17
  %.not = icmp eq ptr %2, null
  br i1 %.not, label %4, label %3

3:                                                ; preds = %1
  tail call void @InitSSL_Method(ptr noundef nonnull %2, i16 771) #17
  br label %4

4:                                                ; preds = %3, %1
  ret ptr %2
}